ccopy_reg
_reconstructor
p0
(cnltk.tag.sequential
TrigramTagger
p1
c__builtin__
object
p2
Ntp3
Rp4
(dp5
S'_taggers'
p6
(lp7
g4
ag0
(cnltk.tag.sequential
BigramTagger
p8
g2
Ntp9
Rp10
(dp11
g6
(lp12
g10
ag0
(cnltk.tag.sequential
UnigramTagger
p13
g2
Ntp14
Rp15
(dp16
g6
(lp17
g15
asS'_n'
p18
I1
sS'_context_to_tag'
p19
(dp20
S'PRP$'
p21
S'B-NP'
p22
sS'VBG'
p23
S'B-VP'
p24
sS'FW'
p25
S'I-NP'
p26
sS'VB'
p27
S'I-VP'
p28
sS'POS'
p29
S'B-NP'
p30
sS"''"
p31
S'O'
p32
sS'VBP'
p33
S'B-VP'
p34
sS'WDT'
p35
S'B-NP'
p36
sS'JJ'
p37
S'I-NP'
p38
sS'WP'
p39
S'B-NP'
p40
sS'VBZ'
p41
S'B-VP'
p42
sS'DT'
p43
S'B-NP'
p44
sS'#'
p45
S'B-NP'
p46
sS'RP'
p47
g32
sS'$'
p48
S'B-NP'
p49
sS'NN'
p50
S'I-NP'
p51
sS')'
p52
g32
sS'('
p53
g32
sS'VBD'
p54
S'B-VP'
p55
sS','
p56
g32
sS'.'
p57
g32
sS'TO'
p58
S'B-PP'
p59
sS'PRP'
p60
S'B-NP'
p61
sS'RB'
p62
g32
sS':'
p63
g32
sS'NNS'
p64
S'I-NP'
p65
sS'NNP'
p66
S'I-NP'
p67
sS'``'
p68
g32
sS'WRB'
p69
g32
sS'CC'
p70
g32
sS'PDT'
p71
S'B-NP'
p72
sS'RBS'
p73
S'B-NP'
p74
sS'RBR'
p75
g32
sS'VBN'
p76
S'I-VP'
p77
sS'EX'
p78
S'B-NP'
p79
sS'IN'
p80
S'B-PP'
p81
sS'WP$'
p82
S'B-NP'
p83
sS'CD'
p84
S'I-NP'
p85
sS'MD'
p86
S'B-VP'
p87
sS'NNPS'
p88
S'I-NP'
p89
sS'JJS'
p90
S'I-NP'
p91
sS'JJR'
p92
S'B-NP'
p93
sS'SYM'
p94
g32
sS'UH'
p95
g32
ssbasg18
I2
sg19
(dp96
((S'I-PP'
p97
tp98
S'VB'
p99
tp100
g32
s((S'I-VP'
p101
tp102
S'NNP'
p103
tp104
S'B-NP'
p105
s((S'I-VP'
p106
tp107
S'EX'
p108
tp109
g32
s((S'B-NP'
p110
tp111
S'IN'
p112
tp113
g81
s((S'B-VP'
p114
tp115
S"''"
p116
tp117
g32
s((S'I-VP'
p118
tp119
S'CD'
p120
tp121
S'B-NP'
p122
s((S'I-PP'
p123
tp124
S'IN'
p125
tp126
S'I-PP'
p127
s((g32
tp128
S'WP'
p129
tp130
g40
s((S'B-VP'
p131
tp132
S'CC'
p133
tp134
S'I-VP'
p135
s((S'I-NP'
p136
tp137
S'RB'
p138
tp139
g32
s((S'I-PP'
p140
tp141
S'NNP'
p142
tp143
S'B-NP'
p144
s((tS'IN'
p145
tp146
S'B-PP'
p147
s((S'B-NP'
p148
tp149
S'JJR'
p150
tp151
S'I-NP'
p152
s((S'I-VP'
p153
tp154
S'VBD'
p155
tp156
S'I-VP'
p157
s((S'B-NP'
p158
tp159
g57
tp160
g32
s((g42
tp161
g62
tp162
S'I-VP'
p163
s((S'I-VP'
p164
tp165
g53
tp166
g32
s((g61
tp167
S'TO'
p168
tp169
S'B-VP'
p170
s((S'B-NP'
p171
tp172
S'JJ'
p173
tp174
g38
s((g34
tp175
g23
tp176
S'I-VP'
p177
s((S'I-NP'
p178
tp179
S'VB'
p180
tp181
S'B-VP'
p182
s((S'B-PP'
p183
tp184
S'JJR'
p185
tp186
g93
s((S'I-VP'
p187
tp188
S'NN'
p189
tp190
S'B-NP'
p191
s((tS'VBD'
p192
tp193
g32
s((S'B-NP'
p194
tp195
S'VBG'
p196
tp197
S'I-NP'
p198
s((S'B-VP'
p199
tp200
S'VBD'
p201
tp202
S'I-VP'
p203
s((S'B-VP'
p204
tp205
S'TO'
p206
tp207
S'I-VP'
p208
s((S'I-VP'
p209
tp210
S'RBR'
p211
tp212
g32
s((g32
tp213
S'NN'
p214
tp215
S'B-NP'
p216
s((S'B-VP'
p217
tp218
S'VB'
p219
tp220
S'I-VP'
p221
s((S'B-NP'
p222
tp223
S'EX'
p224
tp225
g32
s((S'I-NP'
p226
tp227
S'VBD'
p228
tp229
S'B-VP'
p230
s((S'I-NP'
p231
tp232
g75
tp233
g32
s((S'I-NP'
p234
tp235
g45
tp236
S'I-NP'
p237
s((S'I-NP'
p238
tp239
S'RBS'
p240
tp241
S'I-NP'
p242
s((g32
tp243
S'NNPS'
p244
tp245
S'B-NP'
p246
s((S'B-NP'
p247
tp248
g56
tp249
g32
s((S'I-VP'
p250
tp251
S'JJR'
p252
tp253
S'B-NP'
p254
s((S'I-PP'
p255
tp256
S'DT'
p257
tp258
S'B-NP'
p259
s((S'I-NP'
p260
tp261
S'NNP'
p262
tp263
g67
s((S'I-VP'
p264
tp265
S'VBZ'
p266
tp267
S'B-VP'
p268
s((tS'DT'
p269
tp270
S'B-NP'
p271
s((S'B-PP'
p272
tp273
S'RP'
p274
tp275
S'B-PP'
p276
s((S'B-VP'
p277
tp278
S'RP'
p279
tp280
g32
s((S'B-VP'
p281
tp282
S'WRB'
p283
tp284
g32
s((g32
tp285
S'RBS'
p286
tp287
S'B-NP'
p288
s((S'B-PP'
p289
tp290
S'IN'
p291
tp292
g289
s((S'B-VP'
p293
tp294
S'NNS'
p295
tp296
S'B-NP'
p297
s((g32
tp298
S'RP'
p299
tp300
S'B-PP'
p301
s((S'I-NP'
p302
tp303
S'VBZ'
p304
tp305
g42
s((S'I-VP'
p306
tp307
S'NNS'
p308
tp309
S'B-NP'
p310
s((S'I-VP'
p311
tp312
S'VB'
p313
tp314
g28
s((g32
tp315
S'MD'
p316
tp317
S'B-VP'
p318
s((S'B-PP'
p319
tp320
S'NNPS'
p321
tp322
S'B-NP'
p323
s((g77
tp324
g58
tp325
S'I-VP'
p326
s((g32
tp327
S'VB'
p328
tp329
g204
s((S'B-NP'
p330
tp331
S'FW'
p332
tp333
g26
s((S'B-PP'
p334
tp335
S'JJ'
p336
tp337
S'B-NP'
p338
s((S'I-VP'
p339
tp340
S'JJ'
p341
tp342
g110
s((S'B-PP'
p343
tp344
S'PDT'
p345
tp346
S'B-NP'
p347
s((S'I-NP'
p348
tp349
g48
tp350
S'I-NP'
p351
s((S'I-PP'
p352
tp353
S'NN'
p354
tp355
S'B-NP'
p356
s((S'B-NP'
p357
tp358
S'NN'
p359
tp360
g51
s((tS'CC'
p361
tp362
g32
s((g32
tp363
S'TO'
p364
tp365
S'B-VP'
p366
s((S'I-NP'
p367
tp368
S'CD'
p369
tp370
g85
s((S'B-PP'
p371
tp372
S'NN'
p373
tp374
g357
s((S'I-PP'
p375
tp376
S'CC'
p377
tp378
S'I-PP'
p379
s((S'B-NP'
p380
tp381
g45
tp382
S'I-NP'
p383
s((tS'VB'
p384
tp385
S'B-VP'
p386
s((g32
tp387
S'JJ'
p388
tp389
S'B-NP'
p390
s((S'I-VP'
p391
tp392
S'WDT'
p393
tp394
S'B-NP'
p395
s((g32
tp396
S'JJR'
p397
tp398
g32
s((g32
tp399
S'DT'
p400
tp401
S'B-NP'
p402
s((g32
tp403
S'POS'
p404
tp405
g32
s((S'I-VP'
p406
tp407
S"''"
p408
tp409
g32
s((S'B-PP'
p410
tp411
S'CC'
p412
tp413
S'I-PP'
p414
s((S'B-NP'
p415
tp416
g48
tp417
S'I-NP'
p418
s((tS'NNP'
p419
tp420
S'B-NP'
p421
s((S'B-NP'
p422
tp423
S'VB'
p424
tp425
S'B-VP'
p426
s((S'B-NP'
p427
tp428
S'WP'
p429
tp430
S'B-NP'
p431
s((S'B-NP'
p432
tp433
S'PDT'
p434
tp435
S'I-NP'
p436
s((S'B-PP'
p437
tp438
S'PRP$'
p439
tp440
g22
s((S'I-NP'
p441
tp442
S'POS'
p443
tp444
g30
s((S'I-VP'
p445
tp446
S'RP'
p447
tp448
g32
s((g32
tp449
S'WRB'
p450
tp451
g32
s((S'I-VP'
p452
tp453
S'RBS'
p454
tp455
S'B-NP'
p456
s((S'B-NP'
p457
tp458
S'VBZ'
p459
tp460
S'B-VP'
p461
s((S'B-NP'
p462
tp463
S'POS'
p464
tp465
S'B-NP'
p466
s((S'B-VP'
p467
tp468
S'NN'
p469
tp470
S'B-NP'
p471
s((S'I-NP'
p472
tp473
g53
tp474
g32
s((S'B-PP'
p475
tp476
S'VBD'
p477
tp478
S'B-NP'
p479
s((S'I-VP'
p480
tp481
S'CC'
p482
tp483
S'I-VP'
p484
s((S'B-VP'
p485
tp486
S'JJS'
p487
tp488
g32
s((S'I-NP'
p489
tp490
g63
tp491
g32
s((S'B-VP'
p492
tp493
S'VBP'
p494
tp495
S'I-VP'
p496
s((tS'``'
p497
tp498
g32
s((S'B-VP'
p499
tp500
S'VBN'
p501
tp502
S'I-VP'
p503
s((S'I-VP'
p504
tp505
S'JJS'
p506
tp507
g32
s((S'B-PP'
p508
tp509
g66
tp510
S'B-NP'
p511
s((g32
tp512
g63
tp513
g32
s((S'I-NP'
p514
tp515
g52
tp516
g32
s((S'B-VP'
p517
tp518
S'WDT'
p519
tp520
S'B-NP'
p521
s((tg50
tp522
S'B-NP'
p523
s((S'B-VP'
p524
tp525
S'RBS'
p526
tp527
S'B-NP'
p528
s((S'I-VP'
p529
tp530
S'``'
p531
tp532
g32
s((S'I-NP'
p533
tp534
S'RP'
p535
tp536
S'B-PP'
p537
s((S'B-PP'
p538
tp539
S'DT'
p540
tp541
g44
s((S'B-PP'
p542
tp543
g84
tp544
S'B-NP'
p545
s((S'B-PP'
p546
tp547
S'VBG'
p548
tp549
g293
s((g32
tp550
S'RB'
p551
tp552
g32
s((S'I-VP'
p553
tp554
S'DT'
p555
tp556
S'B-NP'
p557
s((tS'VBZ'
p558
tp559
S'B-VP'
p560
s((g32
tp561
S'``'
p562
tp563
g32
s((S'B-PP'
p564
tp565
S'``'
p566
tp567
g32
s((S'I-NP'
p568
tp569
S'IN'
p570
tp571
g508
s((S'I-NP'
p572
tp573
S'WP'
p574
tp575
S'B-NP'
p576
s((g32
tp577
S'VBG'
p578
tp579
S'B-VP'
p580
s((g32
tp581
S'CD'
p582
tp583
S'B-NP'
p584
s((tg63
tp585
g32
s((S'B-NP'
p586
tp587
S'DT'
p588
tp589
S'I-NP'
p590
s((S'B-VP'
p591
tp592
S'IN'
p593
tp594
S'B-PP'
p595
s((S'B-PP'
p596
tp597
S'NNS'
p598
tp599
S'B-NP'
p600
s((g32
tp601
g48
tp602
S'B-NP'
p603
s((g32
tp604
g45
tp605
g32
s((g32
tp606
S"''"
p607
tp608
g32
s((S'I-NP'
p609
tp610
S'JJS'
p611
tp612
S'I-NP'
p613
s((tS'EX'
p614
tp615
S'B-NP'
p616
s((tS'NNPS'
p617
tp618
S'B-NP'
p619
s((S'B-VP'
p620
tp621
S'NNPS'
p622
tp623
S'B-NP'
p624
s((S'B-NP'
p625
tp626
S'MD'
p627
tp628
g87
s((g32
tp629
S'VBD'
p630
tp631
g55
s((S'B-NP'
p632
tp633
S'CD'
p634
tp635
S'I-NP'
p636
s((S'B-VP'
p637
tp638
g56
tp639
g32
s((S'I-PP'
p640
tp641
S'CD'
p642
tp643
S'B-NP'
p644
s((S'B-NP'
p645
tp646
S'``'
p647
tp648
S'I-NP'
p649
s((S'B-PP'
p650
tp651
S'WRB'
p652
tp653
g32
s((tS'TO'
p654
tp655
S'B-VP'
p656
s((g32
tp657
g90
tp658
g32
s((S'I-VP'
p659
tp660
S'MD'
p661
tp662
S'B-VP'
p663
s((S'B-NP'
p664
tp665
S'NNP'
p666
tp667
g260
s((S'I-NP'
p668
tp669
g56
tp670
g32
s((S'B-NP'
p671
tp672
S'VBP'
p673
tp674
g34
s((S'B-VP'
p675
tp676
S'EX'
p677
tp678
S'B-NP'
p679
s((g89
tp680
S'CC'
p681
tp682
g32
s((S'B-NP'
p683
tp684
S'RBS'
p685
tp686
S'I-NP'
p687
s((g32
tp688
S'NNS'
p689
tp690
S'B-NP'
p691
s((S'B-NP'
p692
tp693
S'WRB'
p694
tp695
g32
s((tS'VBP'
p696
tp697
g32
s((g32
tp698
S'CC'
p699
tp700
g32
s((S'I-VP'
p701
tp702
S'IN'
p703
tp704
S'B-PP'
p705
s((S'I-PP'
p706
tp707
S'JJ'
p708
tp709
S'B-NP'
p710
s((S'B-NP'
p711
tp712
g70
tp713
g32
s((S'I-NP'
p714
tp715
S'PRP$'
p716
tp717
S'B-NP'
p718
s((tS'JJS'
p719
tp720
S'B-NP'
p721
s((S'B-NP'
p722
tp723
S"''"
p724
tp725
g32
s((tS'JJ'
p726
tp727
S'B-NP'
p728
s((S'B-VP'
p729
tp730
S'PDT'
p731
tp732
S'B-NP'
p733
s((S'B-PP'
p734
tp735
S'VBN'
p736
tp737
S'B-NP'
p738
s((S'B-VP'
p739
tp740
S'MD'
p741
tp742
S'B-VP'
p743
s((S'I-NP'
p744
tp745
S'PRP'
p746
tp747
S'B-NP'
p748
s((S'B-VP'
p749
tp750
S'VBZ'
p751
tp752
S'I-VP'
p753
s((g32
tp754
S'WDT'
p755
tp756
g36
s((g32
tp757
S'VBN'
p758
tp759
S'B-VP'
p760
s((S'B-PP'
p761
tp762
g53
tp763
g32
s((S'B-NP'
p764
tp765
S'JJS'
p766
tp767
g91
s((S'B-VP'
p768
tp769
S'PRP$'
p770
tp771
S'B-NP'
p772
s((tS'NNS'
p773
tp774
S'B-NP'
p775
s((S'B-VP'
p776
tp777
S'JJR'
p778
tp779
S'B-NP'
p780
s((g32
tp781
S'VBP'
p782
tp783
S'B-VP'
p784
s((S'I-NP'
p785
tp786
S"''"
p787
tp788
g32
s((S'B-VP'
p789
tp790
S'CD'
p791
tp792
S'B-NP'
p793
s((S'I-NP'
p794
tp795
S'TO'
p796
tp797
S'B-VP'
p798
s((S'B-NP'
p799
tp800
S'PRP$'
p801
tp802
S'I-NP'
p803
s((g32
tp804
S'EX'
p805
tp806
g79
s((S'I-VP'
p807
tp808
S'RB'
p809
tp810
g32
s((g32
tp811
S'PDT'
p812
tp813
S'B-NP'
p814
s((S'I-NP'
p815
tp816
g57
tp817
g32
s((g32
tp818
S'FW'
p819
tp820
g32
s((S'B-VP'
p821
tp822
S'FW'
p823
tp824
S'B-NP'
p825
s((S'B-PP'
p826
tp827
S'VB'
p828
tp829
S'B-NP'
p830
s((S'I-NP'
p831
tp832
S'JJR'
p833
tp834
S'I-NP'
p835
s((S'I-VP'
p836
tp837
S'WRB'
p838
tp839
g32
s((g32
tp840
S'NNP'
p841
tp842
S'B-NP'
p843
s((S'I-NP'
p844
tp845
S'EX'
p846
tp847
S'B-NP'
p848
s((S'B-PP'
p849
tp850
S'FW'
p851
tp852
S'B-NP'
p853
s((S'I-NP'
p854
tp855
S'NN'
p856
tp857
g568
s((S'B-NP'
p858
tp859
S'PRP'
p860
tp861
S'B-NP'
p862
s((S'B-NP'
p863
tp864
S'VBD'
p865
tp866
S'B-VP'
p867
s((S'I-NP'
p868
tp869
S'DT'
p870
tp871
S'B-NP'
p872
s((S'B-NP'
p873
tp874
S'SYM'
p875
tp876
g821
s((S'I-NP'
p877
tp878
S'VBG'
p879
tp880
g24
s((S'B-PP'
p881
tp882
S'JJS'
p883
tp884
g32
s((tS'CD'
p885
tp886
S'B-NP'
p887
s((S'I-NP'
p888
tp889
S'``'
p890
tp891
g32
s((S'I-NP'
p892
tp893
S'JJ'
p894
tp895
S'I-NP'
p896
s((tS'VBN'
p897
tp898
S'B-VP'
p899
s((S'I-NP'
p900
tp901
S'MD'
p902
tp903
S'B-VP'
p904
s((S'I-VP'
p905
tp906
S'NNPS'
p907
tp908
S'B-NP'
p909
s((S'B-NP'
p910
tp911
S'VBN'
p912
tp913
S'I-NP'
p914
s((S'I-NP'
p915
tp916
S'NNPS'
p917
tp918
S'I-NP'
p919
s((S'I-PP'
p920
tp921
S'VBN'
p922
tp923
S'B-NP'
p924
s((S'B-VP'
p925
tp926
S'``'
p927
tp928
g32
s((S'I-NP'
p929
tp930
S'NNS'
p931
tp932
S'I-NP'
p933
s((S'B-VP'
p934
tp935
S'JJ'
p936
tp937
S'B-NP'
p938
s((S'I-NP'
p939
tp940
S'VBN'
p941
tp942
S'B-VP'
p943
s((S'I-PP'
p944
tp945
S'RB'
p946
tp947
g123
s((S'B-NP'
p948
tp949
g52
tp950
g32
s((S'B-NP'
p951
tp952
S'RB'
p953
tp954
g32
s((g32
tp955
S'RBR'
p956
tp957
g32
s((tS'RB'
p958
tp959
g32
s((S'B-PP'
p960
tp961
S'RB'
p962
tp963
S'B-NP'
p964
s((tS'VBG'
p965
tp966
S'B-VP'
p967
s((g32
tp968
S'VBZ'
p969
tp970
S'B-VP'
p971
s((g55
tp972
S'NNP'
p973
tp974
S'B-NP'
p975
s((S'I-VP'
p976
tp977
S'VBP'
p978
tp979
S'I-VP'
p980
s((S'I-NP'
p981
tp982
S'VBP'
p983
tp984
S'B-VP'
p985
s((S'B-NP'
p986
tp987
g63
tp988
g32
s((S'B-VP'
p989
tp990
S'RBR'
p991
tp992
g32
s((S'B-NP'
p993
tp994
S'UH'
p995
tp996
S'I-NP'
p997
s((S'B-PP'
p998
tp999
S'TO'
p1000
tp1001
S'B-PP'
p1002
s((S'B-NP'
p1003
tp1004
g53
tp1005
g32
s((S'B-VP'
p1006
tp1007
S'DT'
p1008
tp1009
S'B-NP'
p1010
s((S'I-NP'
p1011
tp1012
S'WRB'
p1013
tp1014
g32
s((S'I-PP'
p1015
tp1016
S'NNS'
p1017
tp1018
S'B-NP'
p1019
s((S'B-PP'
p1020
tp1021
S'VBZ'
p1022
tp1023
S'B-NP'
p1024
s((S'B-NP'
p1025
tp1026
S'NNS'
p1027
tp1028
g65
s((g32
tp1029
S'IN'
p1030
tp1031
g371
s((S'I-VP'
p1032
tp1033
g56
tp1034
g32
s((tS'RBR'
p1035
tp1036
S'B-NP'
p1037
s((S'B-PP'
p1038
tp1039
S'RBR'
p1040
tp1041
S'B-NP'
p1042
s((S'I-VP'
p1043
tp1044
S'VBG'
p1045
tp1046
S'I-VP'
p1047
s((tS'MD'
p1048
tp1049
g32
s((S'I-NP'
p1050
tp1051
S'PDT'
p1052
tp1053
S'I-NP'
p1054
s((S'B-NP'
p1055
tp1056
S'RBR'
p1057
tp1058
S'I-NP'
p1059
s((S'I-VP'
p1060
tp1061
S'VBN'
p1062
tp1063
g77
ssbag15
asg18
I3
sg19
(dp1064
((S'B-NP'
p1065
S'B-NP'
p1066
tp1067
S'``'
p1068
tp1069
S'I-NP'
p1070
s((S'I-NP'
p1071
S'I-NP'
p1072
tp1073
S'RBR'
p1074
tp1075
S'B-NP'
p1076
s((tS'VBD'
p1077
tp1078
g32
s((S'B-NP'
p1079
g632
tp1080
g634
tp1081
S'I-NP'
p1082
s((S'B-NP'
p1083
tp1084
S'IN'
p1085
tp1086
g81
s((g32
S'B-NP'
p1087
tp1088
S'CD'
p1089
tp1090
S'I-NP'
p1091
s((S'I-NP'
p1092
S'I-NP'
p1093
tp1094
S'POS'
p1095
tp1096
g30
s((S'I-VP'
p1097
g32
tp1098
S'NN'
p1099
tp1100
S'B-NP'
p1101
s((tg145
tp1102
g147
s((g32
g32
tp1103
S'VBN'
p1104
tp1105
S'B-VP'
p1106
s((S'B-PP'
p1107
g986
tp1108
g63
tp1109
g32
s((S'B-NP'
p1110
S'B-PP'
p1111
tp1112
S'RB'
p1113
tp1114
S'B-NP'
p1115
s((S'B-PP'
p1116
S'B-NP'
p1117
tp1118
S'POS'
p1119
tp1120
S'B-NP'
p1121
s((S'B-NP'
p1122
tp1123
g57
tp1124
g32
s((S'I-NP'
p1125
S'B-VP'
p1126
tp1127
S'WDT'
p1128
tp1129
S'B-NP'
p1130
s((S'B-NP'
p1131
S'B-VP'
p1132
tp1133
S'VBD'
p1134
tp1135
S'I-VP'
p1136
s((S'I-NP'
p1137
g524
tp1138
g526
tp1139
S'I-VP'
p1140
s((S'I-NP'
p1141
S'B-VP'
p1142
tp1143
S'NN'
p1144
tp1145
g471
s((S'B-VP'
p1146
S'B-NP'
p1147
tp1148
g48
tp1149
S'I-NP'
p1150
s((S'B-VP'
p1151
S'B-NP'
p1152
tp1153
S"''"
p1154
tp1155
g32
s((S'B-NP'
p1156
S'I-NP'
p1157
tp1158
g52
tp1159
g32
s((S'I-NP'
p1160
S'I-NP'
p1161
tp1162
S"''"
p1163
tp1164
g32
s((S'B-NP'
p1165
tp1166
S'VBG'
p1167
tp1168
S'I-NP'
p1169
s((S'I-VP'
p1170
S'I-VP'
p1171
tp1172
S'EX'
p1173
tp1174
g32
s((g632
g32
tp1175
S'NN'
p1176
tp1177
S'B-NP'
p1178
s((S'B-PP'
p1179
S'B-NP'
p1180
tp1181
S'VBN'
p1182
tp1183
S'I-NP'
p1184
s((S'B-NP'
p1185
g32
tp1186
S'MD'
p1187
tp1188
S'B-VP'
p1189
s((S'B-VP'
p1190
g32
tp1191
S'VB'
p1192
tp1193
g114
s((S'B-PP'
p1194
g148
tp1195
g150
tp1196
S'I-NP'
p1197
s((S'B-NP'
p1198
S'B-PP'
p1199
tp1200
S'CC'
p1201
tp1202
S'I-PP'
p1203
s((S'B-NP'
p1204
S'I-NP'
p1205
tp1206
S'VBZ'
p1207
tp1208
g42
s((g32
S'B-NP'
p1209
tp1210
S'DT'
p1211
tp1212
S'I-NP'
p1213
s((S'B-PP'
p1214
g1025
tp1215
g1027
tp1216
g231
s((S'I-VP'
p1217
S'B-PP'
p1218
tp1219
S'RBR'
p1220
tp1221
g32
s((tg269
tp1222
g271
s((S'B-VP'
p1223
S'B-PP'
p1224
tp1225
S'JJR'
p1226
tp1227
S'B-NP'
p1228
s((S'I-NP'
p1229
S'B-PP'
p1230
tp1231
S'CC'
p1232
tp1233
g414
s((S'I-VP'
p1234
g546
tp1235
g548
tp1236
S'B-VP'
p1237
s((tS'VB'
p1238
tp1239
g386
s((S'B-PP'
p1240
g32
tp1241
S'JJ'
p1242
tp1243
S'B-NP'
p1244
s((g32
S'B-VP'
p1245
tp1246
S'JJS'
p1247
tp1248
S'I-VP'
p1249
s((S'B-PP'
p1250
tp1251
S'IN'
p1252
tp1253
S'I-PP'
p1254
s((S'B-VP'
p1255
g311
tp1256
g313
tp1257
S'I-VP'
p1258
s((S'B-NP'
p1259
g32
tp1260
S'POS'
p1261
tp1262
S'B-NP'
p1263
s((S'I-NP'
p1264
S'I-NP'
p1265
tp1266
S'VB'
p1267
tp1268
S'B-VP'
p1269
s((g32
g32
tp1270
S'NNP'
p1271
tp1272
S'B-NP'
p1273
s((S'I-VP'
p1274
S'I-VP'
p1275
tp1276
S'VBD'
p1277
tp1278
g157
s((S'I-VP'
p1279
S'B-NP'
p1280
tp1281
S'VBP'
p1282
tp1283
S'B-VP'
p1284
s((S'I-NP'
p1285
g437
tp1286
g439
tp1287
g22
s((g32
S'B-NP'
p1288
tp1289
S'VBP'
p1290
tp1291
g34
s((S'I-NP'
p1292
g32
tp1293
g630
tp1294
S'B-VP'
p1295
s((g32
tp1296
g316
tp1297
g32
s((S'I-VP'
p1298
S'B-NP'
p1299
tp1300
g48
tp1301
S'I-NP'
p1302
s((S'I-NP'
p1303
S'I-NP'
p1304
tp1305
S'NN'
p1306
tp1307
S'I-NP'
p1308
s((S'B-VP'
p1309
g938
tp1310
S'NN'
p1311
tp1312
S'I-NP'
p1313
s((S'I-NP'
p1314
g32
tp1315
S'CC'
p1316
tp1317
g32
s((S'B-NP'
p1318
tp1319
S'NN'
p1320
tp1321
S'I-NP'
p1322
s((g600
g32
tp1323
g758
tp1324
S'B-VP'
p1325
s((g32
S'B-NP'
p1326
tp1327
S'RB'
p1328
tp1329
g32
s((S'B-NP'
p1330
g564
tp1331
g566
tp1332
g32
s((S'I-NP'
p1333
g32
tp1334
S'NNP'
p1335
tp1336
g843
s((g32
g722
tp1337
g724
tp1338
g32
s((S'B-NP'
p1339
g888
tp1340
g890
tp1341
g32
s((S'B-PP'
p1342
S'B-NP'
p1343
tp1344
S'NNP'
p1345
tp1346
g260
s((g32
S'B-VP'
p1347
tp1348
S'IN'
p1349
tp1350
S'B-PP'
p1351
s((S'I-PP'
p1352
S'B-NP'
p1353
tp1354
S'CC'
p1355
tp1356
g32
s((S'I-NP'
p1357
g32
tp1358
S'CD'
p1359
tp1360
S'B-NP'
p1361
s((tS'JJS'
p1362
tp1363
g721
s((g517
g32
tp1364
S'VBD'
p1365
tp1366
S'B-VP'
p1367
s((S'B-PP'
p1368
S'B-NP'
p1369
tp1370
g48
tp1371
S'I-NP'
p1372
s((S'B-VP'
p1373
g406
tp1374
g408
tp1375
g32
s((S'B-NP'
p1376
g854
tp1377
g856
tp1378
g568
s((g32
S'B-VP'
p1379
tp1380
S'WRB'
p1381
tp1382
g32
s((S'I-NP'
p1383
S'B-NP'
p1384
tp1385
S'DT'
p1386
tp1387
g590
s((S'B-NP'
p1388
S'B-VP'
p1389
tp1390
S'VBP'
p1391
tp1392
g496
s((S'B-VP'
p1393
S'I-VP'
p1394
tp1395
S'JJR'
p1396
tp1397
g254
s((S'I-NP'
p1398
S'B-NP'
p1399
tp1400
g52
tp1401
S'I-NP'
p1402
s((S'B-NP'
p1403
g675
tp1404
g677
tp1405
S'B-NP'
p1406
s((S'B-NP'
p1407
S'I-NP'
p1408
tp1409
S'VB'
p1410
tp1411
g182
s((S'B-PP'
p1412
g671
tp1413
g673
tp1414
S'B-VP'
p1415
s((S'B-NP'
p1416
tp1417
S'POS'
p1418
tp1419
S'B-NP'
p1420
s((S'I-VP'
p1421
S'B-NP'
p1422
tp1423
S'NNS'
p1424
tp1425
S'I-NP'
p1426
s((S'I-VP'
p1427
S'B-PP'
p1428
tp1429
S'IN'
p1430
tp1431
S'B-NP'
p1432
s((S'B-NP'
p1433
S'B-PP'
p1434
tp1435
S'IN'
p1436
tp1437
S'B-PP'
p1438
s((g32
S'B-NP'
p1439
tp1440
S'TO'
p1441
tp1442
S'B-VP'
p1443
s((S'I-NP'
p1444
S'I-NP'
p1445
tp1446
S'JJR'
p1447
tp1448
S'I-NP'
p1449
s((g32
S'B-NP'
p1450
tp1451
S'JJR'
p1452
tp1453
g152
s((g32
S'B-NP'
p1454
tp1455
S'NN'
p1456
tp1457
S'I-NP'
p1458
s((S'I-NP'
p1459
g32
tp1460
S'DT'
p1461
tp1462
S'B-NP'
p1463
s((S'B-VP'
p1464
g209
tp1465
g211
tp1466
g32
s((S'I-NP'
p1467
S'B-NP'
p1468
tp1469
S'RBS'
p1470
tp1471
S'I-NP'
p1472
s((S'I-NP'
p1473
S'B-VP'
p1474
tp1475
S'RB'
p1476
tp1477
g163
s((S'I-NP'
p1478
g302
tp1479
g304
tp1480
S'B-VP'
p1481
s((S'I-NP'
p1482
g32
tp1483
S'TO'
p1484
tp1485
S'B-PP'
p1486
s((S'B-VP'
p1487
tp1488
S'TO'
p1489
tp1490
S'B-PP'
p1491
s((S'I-NP'
p1492
S'B-PP'
p1493
tp1494
S'IN'
p1495
tp1496
S'B-PP'
p1497
s((S'B-VP'
p1498
S'B-NP'
p1499
tp1500
g56
tp1501
g32
s((S'I-VP'
p1502
g32
tp1503
S'VBZ'
p1504
tp1505
S'B-VP'
p1506
s((S'B-NP'
p1507
g785
tp1508
g787
tp1509
g32
s((S'B-VP'
p1510
S'I-VP'
p1511
tp1512
S'NN'
p1513
tp1514
S'B-NP'
p1515
s((g32
g462
tp1516
g464
tp1517
g466
s((S'I-VP'
p1518
S'B-NP'
p1519
tp1520
S'VBD'
p1521
tp1522
S'B-VP'
p1523
s((S'B-PP'
p1524
g948
tp1525
g52
tp1526
g32
s((S'I-VP'
p1527
g32
tp1528
S'NNS'
p1529
tp1530
S'B-NP'
p1531
s((S'I-NP'
p1532
S'B-PP'
p1533
tp1534
S'VBG'
p1535
tp1536
g293
s((S'I-NP'
p1537
S'B-VP'
p1538
tp1539
S'CC'
p1540
tp1541
g32
s((g32
tp1542
S'VBD'
p1543
tp1544
g32
s((S'I-NP'
p1545
g32
tp1546
g286
tp1547
S'B-NP'
p1548
s((S'B-NP'
p1549
S'B-NP'
p1550
tp1551
g48
tp1552
g32
s((S'I-NP'
p1553
g514
tp1554
g52
tp1555
g32
s((S'B-NP'
p1556
g231
tp1557
g75
tp1558
g32
s((g32
S'B-VP'
p1559
tp1560
S'JJ'
p1561
tp1562
S'B-NP'
p1563
s((S'I-VP'
p1564
g250
tp1565
g252
tp1566
S'B-NP'
p1567
s((S'I-VP'
p1568
S'B-NP'
p1569
tp1570
S'``'
p1571
tp1572
S'I-NP'
p1573
s((g191
g1426
tp1574
S'TO'
p1575
tp1576
g542
s((S'B-NP'
p1577
g277
tp1578
g279
tp1579
g32
s((g32
S'B-VP'
p1580
tp1581
S'VBP'
p1582
tp1583
S'I-VP'
p1584
s((g32
tp1585
g699
tp1586
g32
s((S'B-VP'
p1587
S'B-NP'
p1588
tp1589
S'RB'
p1590
tp1591
g32
s((S'B-NP'
p1592
S'I-NP'
p1593
tp1594
S'PRP'
p1595
tp1596
g748
s((S'I-NP'
p1597
S'B-VP'
p1598
tp1599
S'TO'
p1600
tp1601
S'I-VP'
p1602
s((g32
S'B-VP'
p1603
tp1604
S'VBN'
p1605
tp1606
S'I-VP'
p1607
s((g32
g761
tp1608
g53
tp1609
g1156
s((S'I-NP'
p1610
S'B-PP'
p1611
tp1612
g53
tp1613
g32
s((S'I-NP'
p1614
S'B-NP'
p1615
tp1616
S'PRP$'
p1617
tp1618
S'B-NP'
p1619
s((g32
tp1620
S'NN'
p1621
tp1622
S'B-NP'
p1623
s((S'I-NP'
p1624
g1006
tp1625
g1008
tp1626
S'B-NP'
p1627
s((S'I-NP'
p1628
S'B-VP'
p1629
tp1630
S'CD'
p1631
tp1632
S'B-NP'
p1633
s((g32
tp1634
S'NNP'
p1635
tp1636
S'B-NP'
p1637
s((S'I-VP'
p1638
S'B-PP'
p1639
tp1640
S'NN'
p1641
tp1642
S'B-NP'
p1643
s((S'I-NP'
p1644
S'I-NP'
p1645
tp1646
S'VBD'
p1647
tp1648
g230
s((S'B-VP'
p1649
S'B-NP'
p1650
tp1651
S'VBD'
p1652
tp1653
S'B-VP'
p1654
s((S'I-NP'
p1655
S'B-PP'
p1656
tp1657
S'NN'
p1658
tp1659
S'B-NP'
p1660
s((g32
g32
tp1661
S'VBG'
p1662
tp1663
S'B-VP'
p1664
s((S'B-NP'
p1665
S'B-NP'
p1666
tp1667
S'IN'
p1668
tp1669
S'B-PP'
p1670
s((S'I-NP'
p1671
S'B-NP'
p1672
tp1673
S'VBD'
p1674
tp1675
S'B-VP'
p1676
s((S'B-NP'
p1677
g637
tp1678
g56
tp1679
g32
s((tg885
tp1680
g887
s((S'B-VP'
p1681
g692
tp1682
g694
tp1683
g32
s((S'I-NP'
p1684
S'B-NP'
p1685
tp1686
S'IN'
p1687
tp1688
S'B-PP'
p1689
s((S'B-NP'
p1690
g32
tp1691
S'CC'
p1692
tp1693
g32
s((S'B-PP'
p1694
S'B-VP'
p1695
tp1696
S'VBN'
p1697
tp1698
S'I-VP'
p1699
s((S'B-VP'
p1700
S'I-VP'
p1701
tp1702
S'WRB'
p1703
tp1704
g32
s((S'I-NP'
p1705
S'B-NP'
p1706
tp1707
S'NNP'
p1708
tp1709
S'I-NP'
p1710
s((S'I-NP'
p1711
S'I-NP'
p1712
tp1713
S'CD'
p1714
tp1715
S'I-NP'
p1716
s((S'B-NP'
p1717
S'B-PP'
p1718
tp1719
S'JJ'
p1720
tp1721
S'B-NP'
p1722
s((S'B-VP'
p1723
S'B-NP'
p1724
tp1725
S'CD'
p1726
tp1727
S'I-NP'
p1728
s((S'B-PP'
p1729
S'B-PP'
p1730
tp1731
S'``'
p1732
tp1733
g32
s((S'B-NP'
p1734
S'B-NP'
p1735
tp1736
S'RBR'
p1737
tp1738
g32
s((S'B-PP'
p1739
g32
tp1740
S'NNP'
p1741
tp1742
S'B-NP'
p1743
s((S'I-NP'
p1744
S'B-NP'
p1745
tp1746
g48
tp1747
S'I-NP'
p1748
s((S'I-NP'
p1749
g343
tp1750
g345
tp1751
S'B-NP'
p1752
s((S'B-PP'
p1753
S'B-NP'
p1754
tp1755
g56
tp1756
g32
s((g32
tp1757
S'VBZ'
p1758
tp1759
g32
s((S'B-VP'
p1760
tp1761
S'NNP'
p1762
tp1763
S'B-NP'
p1764
s((S'B-PP'
p1765
g158
tp1766
g57
tp1767
g32
s((S'I-PP'
p1768
S'B-NP'
p1769
tp1770
g56
tp1771
g32
s((S'B-PP'
p1772
S'B-NP'
p1773
tp1774
S'VB'
p1775
tp1776
S'B-VP'
p1777
s((S'I-VP'
p1778
g1097
tp1779
S'DT'
p1780
tp1781
g557
s((S'B-NP'
p1782
tp1783
S'NNS'
p1784
tp1785
g1624
s((S'I-NP'
p1786
g32
tp1787
S'``'
p1788
tp1789
g32
s((S'B-PP'
p1790
S'B-VP'
p1791
tp1792
S'RBR'
p1793
tp1794
S'B-NP'
p1795
s((S'B-VP'
p1796
S'B-PP'
p1797
tp1798
S'``'
p1799
tp1800
g32
s((S'B-VP'
p1801
S'B-VP'
p1802
tp1803
S'JJR'
p1804
tp1805
g32
s((S'B-PP'
p1806
S'B-NP'
p1807
tp1808
S'JJS'
p1809
tp1810
g91
s((S'B-PP'
p1811
S'B-NP'
p1812
tp1813
S'JJ'
p1814
tp1815
S'I-NP'
p1816
s((S'B-NP'
p1817
S'B-NP'
p1818
tp1819
S'CC'
p1820
tp1821
g32
s((S'B-PP'
p1822
S'B-VP'
p1823
tp1824
S'TO'
p1825
tp1826
S'I-VP'
p1827
s((S'B-NP'
p1828
g32
tp1829
S'``'
p1830
tp1831
g32
s((S'B-VP'
p1832
S'B-NP'
p1833
tp1834
S'CC'
p1835
tp1836
g32
s((S'I-NP'
p1837
S'I-NP'
p1838
tp1839
S'NNP'
p1840
tp1841
S'I-NP'
p1842
s((g32
S'B-PP'
p1843
tp1844
S'TO'
p1845
tp1846
S'B-PP'
p1847
s((S'B-PP'
p1848
g32
tp1849
S'CD'
p1850
tp1851
g32
s((S'B-PP'
p1852
S'B-VP'
p1853
tp1854
S'NN'
p1855
tp1856
S'B-NP'
p1857
s((S'B-NP'
p1858
S'B-VP'
p1859
tp1860
S'CC'
p1861
tp1862
S'I-VP'
p1863
s((tg419
tp1864
g421
s((tS'NN'
p1865
tp1866
g523
s((S'I-VP'
p1867
g32
tp1868
S'VBG'
p1869
tp1870
S'B-VP'
p1871
s((S'I-VP'
p1872
g32
tp1873
S'VBN'
p1874
tp1875
S'B-VP'
p1876
s((S'I-VP'
p1877
S'B-PP'
p1878
tp1879
S'DT'
p1880
tp1881
S'B-NP'
p1882
s((S'I-VP'
p1883
S'B-NP'
p1884
tp1885
S'NN'
p1886
tp1887
S'I-NP'
p1888
s((S'B-VP'
p1889
S'B-NP'
p1890
tp1891
S'NNP'
p1892
tp1893
S'I-NP'
p1894
s((S'B-PP'
p1895
g32
tp1896
S'RBS'
p1897
tp1898
g32
s((g32
S'B-VP'
p1899
tp1900
S'``'
p1901
tp1902
g32
s((S'I-VP'
p1903
S'B-VP'
p1904
tp1905
S'RB'
p1906
tp1907
S'I-VP'
p1908
s((g32
g32
tp1909
g969
tp1910
S'B-VP'
p1911
s((g32
S'B-NP'
p1912
tp1913
S'NNS'
p1914
tp1915
g65
s((S'B-PP'
p1916
g32
tp1917
S'FW'
p1918
tp1919
S'B-NP'
p1920
s((S'B-VP'
p1921
g32
tp1922
S'NNP'
p1923
tp1924
S'B-NP'
p1925
s((g32
g32
tp1926
S'DT'
p1927
tp1928
S'B-NP'
p1929
s((S'B-NP'
p1930
g729
tp1931
g731
tp1932
S'B-NP'
p1933
s((g183
g32
tp1934
S'IN'
p1935
tp1936
S'B-PP'
p1937
s((S'I-NP'
p1938
g32
tp1939
S'JJR'
p1940
tp1941
g1204
s((S'B-NP'
p1942
S'B-NP'
p1943
tp1944
S'VBP'
p1945
tp1946
S'B-VP'
p1947
s((S'B-VP'
p1948
g32
tp1949
S'RBR'
p1950
tp1951
g32
s((S'I-NP'
p1952
g868
tp1953
g870
tp1954
g872
s((S'I-VP'
p1955
S'I-VP'
p1956
tp1957
S'RB'
p1958
tp1959
g32
s((S'I-PP'
p1960
S'B-NP'
p1961
tp1962
S'VBZ'
p1963
tp1964
S'I-NP'
p1965
s((g32
g32
tp1966
g48
tp1967
g603
s((S'I-VP'
p1968
S'B-NP'
p1969
tp1970
S'VBZ'
p1971
tp1972
S'B-VP'
p1973
s((S'B-VP'
p1974
S'B-NP'
p1975
tp1976
S'MD'
p1977
tp1978
S'B-VP'
p1979
s((S'I-PP'
p1980
S'B-NP'
p1981
tp1982
S'TO'
p1983
tp1984
S'B-PP'
p1985
s((g250
g32
tp1986
S'IN'
p1987
tp1988
S'B-PP'
p1989
s((g32
g32
tp1990
S'CC'
p1991
tp1992
g32
s((g32
S'B-VP'
p1993
tp1994
S'VBG'
p1995
tp1996
S'I-VP'
p1997
s((S'I-VP'
p1998
g32
tp1999
S'DT'
p2000
tp2001
S'B-NP'
p2002
s((g32
tp2003
S'RBS'
p2004
tp2005
S'B-NP'
p2006
s((S'I-NP'
p2007
S'B-NP'
p2008
tp2009
S'JJR'
p2010
tp2011
S'I-NP'
p2012
s((S'B-NP'
p2013
tp2014
S'VBN'
p2015
tp2016
S'I-NP'
p2017
s((S'B-NP'
p2018
g815
tp2019
g57
tp2020
g32
s((g32
S'B-PP'
p2021
tp2022
S'IN'
p2023
tp2024
S'B-PP'
p2025
s((g32
S'B-NP'
p2026
tp2027
S'JJ'
p2028
tp2029
S'I-NP'
p2030
s((S'B-NP'
p2031
S'B-PP'
p2032
tp2033
S'CD'
p2034
tp2035
S'B-NP'
p2036
s((g32
S'B-NP'
p2037
tp2038
S'VB'
p2039
tp2040
S'B-VP'
p2041
s((g32
g32
tp2042
S'VBP'
p2043
tp2044
S'B-VP'
p2045
s((S'B-PP'
p2046
S'B-NP'
p2047
tp2048
S'EX'
p2049
tp2050
S'B-NP'
p2051
s((g32
S'B-VP'
p2052
tp2053
S'CC'
p2054
tp2055
S'I-VP'
p2056
s((S'I-NP'
p2057
S'B-VP'
p2058
tp2059
S'VBP'
p2060
tp2061
S'B-VP'
p2062
s((S'B-NP'
p2063
S'B-VP'
p2064
tp2065
S'RBR'
p2066
tp2067
g32
s((S'B-NP'
p2068
g572
tp2069
g574
tp2070
g576
s((S'B-NP'
p2071
S'I-NP'
p2072
tp2073
S'PRP$'
p2074
tp2075
g718
s((S'B-VP'
p2076
g32
tp2077
S'VBN'
p2078
tp2079
g32
s((tg361
tp2080
g32
s((g784
g1997
tp2081
S'IN'
p2082
tp2083
S'B-PP'
p2084
s((S'B-NP'
p2085
S'B-VP'
p2086
tp2087
S'NNP'
p2088
tp2089
S'B-NP'
p2090
s((tg63
tp2091
g32
s((g32
S'B-VP'
p2092
tp2093
S'RP'
p2094
tp2095
g32
s((S'I-NP'
p2096
S'I-NP'
p2097
tp2098
S'CC'
p2099
tp2100
g32
s((S'B-NP'
p2101
g668
tp2102
g56
tp2103
g32
s((S'I-NP'
p2104
S'B-NP'
p2105
tp2106
g56
tp2107
g32
s((g32
tp2108
S'JJR'
p2109
tp2110
S'B-NP'
p2111
s((S'I-NP'
p2112
S'B-PP'
p2113
tp2114
S'VBN'
p2115
tp2116
g738
s((g32
S'B-NP'
p2117
tp2118
S'PRP$'
p2119
tp2120
S'I-NP'
p2121
s((S'B-NP'
p2122
S'B-NP'
p2123
tp2124
S'RB'
p2125
tp2126
g32
s((S'B-NP'
p2127
tp2128
S'VB'
p2129
tp2130
S'B-VP'
p2131
s((g496
S'B-VP'
p2132
tp2133
S'VB'
p2134
tp2135
S'I-VP'
p2136
s((g32
S'B-NP'
p2137
tp2138
S'IN'
p2139
tp2140
S'B-PP'
p2141
s((g32
g32
tp2142
S'RBR'
p2143
tp2144
g32
s((g511
g32
tp2145
g388
tp2146
g390
s((S'B-VP'
p2147
g32
tp2148
S'VBG'
p2149
tp2150
S'B-VP'
p2151
s((S'B-PP'
p2152
S'B-VP'
p2153
tp2154
S'RB'
p2155
tp2156
g32
s((S'B-VP'
p2157
tp2158
S'VBP'
p2159
tp2160
g32
s((tg497
tp2161
g32
s((S'B-NP'
p2162
S'B-NP'
p2163
tp2164
S'PDT'
p2165
tp2166
S'B-NP'
p2167
s((S'B-PP'
p2168
tp2169
S'NNP'
p2170
tp2171
S'B-NP'
p2172
s((S'I-VP'
p2173
g951
tp2174
g953
tp2175
g32
s((S'I-NP'
p2176
S'I-NP'
p2177
tp2178
S'``'
p2179
tp2180
g32
s((S'I-NP'
p2181
S'B-NP'
p2182
tp2183
S'CC'
p2184
tp2185
S'I-NP'
p2186
s((S'I-PP'
p2187
S'B-NP'
p2188
tp2189
S'VBN'
p2190
tp2191
S'I-NP'
p2192
s((S'B-NP'
p2193
g32
tp2194
S'NNP'
p2195
tp2196
S'B-NP'
p2197
s((S'I-NP'
p2198
S'B-NP'
p2199
tp2200
S'JJS'
p2201
tp2202
S'I-NP'
p2203
s((S'I-VP'
p2204
S'B-NP'
p2205
tp2206
S'VBN'
p2207
tp2208
S'I-NP'
p2209
s((S'B-PP'
p2210
S'I-PP'
p2211
tp2212
S'RB'
p2213
tp2214
g123
s((S'B-VP'
p2215
S'B-VP'
p2216
tp2217
S'JJ'
p2218
tp2219
g32
s((S'B-VP'
p2220
S'I-VP'
p2221
tp2222
g56
tp2223
g32
s((tg558
tp2224
g560
s((S'B-NP'
p2225
g32
tp2226
g48
tp2227
S'B-NP'
p2228
s((S'B-PP'
p2229
tp2230
S'JJ'
p2231
tp2232
S'B-NP'
p2233
s((g32
S'B-PP'
p2234
tp2235
S'JJ'
p2236
tp2237
S'B-NP'
p2238
s((g1511
S'I-VP'
p2239
tp2240
S'CC'
p2241
tp2242
S'I-VP'
p2243
s((S'B-NP'
p2244
tp2245
S'DT'
p2246
tp2247
S'I-NP'
p2248
s((S'B-NP'
p2249
g831
tp2250
g833
tp2251
g835
s((S'B-NP'
p2252
g472
tp2253
g53
tp2254
g32
s((S'I-VP'
p2255
S'B-NP'
p2256
tp2257
S'POS'
p2258
tp2259
S'B-NP'
p2260
s((S'B-VP'
p2261
S'B-NP'
p2262
tp2263
S'``'
p2264
tp2265
S'I-NP'
p2266
s((S'I-NP'
p2267
S'B-VP'
p2268
tp2269
S'VBD'
p2270
tp2271
S'I-VP'
p2272
s((tg614
tp2273
g616
s((S'B-PP'
p2274
S'B-VP'
p2275
tp2276
S'VBG'
p2277
tp2278
S'I-VP'
p2279
s((S'B-PP'
p2280
g32
tp2281
S'NN'
p2282
tp2283
S'B-NP'
p2284
s((S'I-VP'
p2285
g32
tp2286
S'JJ'
p2287
tp2288
g32
s((S'B-NP'
p2289
g900
tp2290
g902
tp2291
S'B-VP'
p2292
s((S'I-PP'
p2293
S'B-NP'
p2294
tp2295
S'VBG'
p2296
tp2297
S'I-NP'
p2298
s((S'I-NP'
p2299
S'B-NP'
p2300
tp2301
S'``'
p2302
tp2303
S'I-NP'
p2304
s((S'I-VP'
p2305
S'B-NP'
p2306
tp2307
S'VBG'
p2308
tp2309
S'I-NP'
p2310
s((S'I-NP'
p2311
g925
tp2312
g927
tp2313
g32
s((S'I-VP'
p2314
g32
tp2315
S'NNP'
p2316
tp2317
S'B-NP'
p2318
s((S'B-PP'
p2319
g289
tp2320
g291
tp2321
S'B-PP'
p2322
s((S'I-NP'
p2323
g892
tp2324
g894
tp2325
S'I-NP'
p2326
s((g32
S'B-VP'
p2327
tp2328
S'NNP'
p2329
tp2330
g975
s((S'I-NP'
p2331
g1817
tp2332
S'NN'
p2333
tp2334
g794
s((tg965
tp2335
g967
s((S'B-NP'
p2336
S'B-VP'
p2337
tp2338
S'JJR'
p2339
tp2340
S'B-NP'
p2341
s((S'I-VP'
p2342
S'B-NP'
p2343
tp2344
S'TO'
p2345
tp2346
g170
s((S'B-NP'
p2347
S'B-NP'
p2348
tp2349
S'NNS'
p2350
tp2351
S'I-NP'
p2352
s((g32
S'B-VP'
p2353
tp2354
S'CD'
p2355
tp2356
S'B-NP'
p2357
s((S'B-PP'
p2358
S'B-NP'
p2359
tp2360
S'TO'
p2361
tp2362
S'B-VP'
p2363
s((g171
g32
tp2364
S'IN'
p2365
tp2366
S'B-PP'
p2367
s((S'I-VP'
p2368
S'B-NP'
p2369
tp2370
S'DT'
p2371
tp2372
S'B-NP'
p2373
s((S'B-VP'
p2374
g164
tp2375
g53
tp2376
g32
s((S'B-VP'
p2377
S'B-NP'
p2378
tp2379
S'NNS'
p2380
tp2381
S'I-NP'
p2382
s((S'I-NP'
p2383
g32
tp2384
S'NN'
p2385
tp2386
g216
s((g371
g357
tp2387
g359
tp2388
g51
s((S'B-NP'
p2389
S'I-NP'
p2390
tp2391
S'RB'
p2392
tp2393
g32
s((S'I-VP'
p2394
g32
tp2395
g450
tp2396
g32
s((S'B-VP'
p2397
S'B-PP'
p2398
tp2399
S'RB'
p2400
tp2401
S'B-NP'
p2402
s((g863
tp2403
g865
tp2404
S'B-VP'
p2405
s((S'B-VP'
p2406
S'B-PP'
p2407
tp2408
S'IN'
p2409
tp2410
S'B-PP'
p2411
s((S'B-VP'
p2412
S'I-VP'
p2413
tp2414
S'VBP'
p2415
tp2416
g980
s((g32
g32
tp2417
S'JJ'
p2418
tp2419
g32
s((S'B-VP'
p2420
S'B-NP'
p2421
tp2422
S'PRP$'
p2423
tp2424
S'B-NP'
p2425
s((g32
g858
tp2426
g860
tp2427
S'B-NP'
p2428
s((S'B-VP'
p2429
g659
tp2430
g661
tp2431
g663
s((S'B-VP'
p2432
g32
tp2433
S'CC'
p2434
tp2435
g32
s((S'B-VP'
p2436
S'I-VP'
p2437
tp2438
S'VBN'
p2439
tp2440
g77
s((g2132
S'B-VP'
p2441
tp2442
S'IN'
p2443
tp2444
g32
s((S'I-VP'
p2445
S'B-VP'
p2446
tp2447
S'IN'
p2448
tp2449
g32
s((S'I-PP'
p2450
S'B-NP'
p2451
tp2452
S'NN'
p2453
tp2454
S'I-NP'
p2455
s((g32
g32
tp2456
S'JJR'
p2457
tp2458
g32
s((S'B-PP'
p2459
S'B-NP'
p2460
tp2461
S"''"
p2462
tp2463
g32
s((S'B-PP'
p2464
S'B-PP'
p2465
tp2466
S'JJ'
p2467
tp2468
S'B-NP'
p2469
s((S'B-NP'
p2470
S'B-NP'
p2471
tp2472
S'MD'
p2473
tp2474
S'B-VP'
p2475
s((S'B-NP'
p2476
g281
tp2477
g283
tp2478
g32
s((S'B-VP'
p2479
tp2480
S'``'
p2481
tp2482
S'B-NP'
p2483
s((S'B-VP'
p2484
S'B-VP'
p2485
tp2486
S'CC'
p2487
tp2488
g32
s((S'I-NP'
p2489
S'B-NP'
p2490
tp2491
S'VBG'
p2492
tp2493
S'I-NP'
p2494
s((S'I-NP'
p2495
S'B-NP'
p2496
tp2497
S'CD'
p2498
tp2499
S'I-NP'
p2500
s((S'B-NP'
p2501
g32
tp2502
S'TO'
p2503
tp2504
S'B-VP'
p2505
s((S'I-VP'
p2506
S'B-NP'
p2507
tp2508
S'VB'
p2509
tp2510
g426
s((g32
g32
tp2511
S'WRB'
p2512
tp2513
g32
s((g1142
g32
tp2514
S'TO'
p2515
tp2516
S'B-VP'
p2517
s((g2123
S'I-NP'
p2518
tp2519
S'NNS'
p2520
tp2521
g933
s((S'I-NP'
p2522
S'B-NP'
p2523
tp2524
S'NNS'
p2525
tp2526
S'I-NP'
p2527
s((g32
g32
tp2528
S'NNS'
p2529
tp2530
g2137
s((S'I-VP'
p2531
S'I-VP'
p2532
tp2533
S'VBG'
p2534
tp2535
S'I-VP'
p2536
s((S'B-NP'
p2537
S'B-NP'
p2538
tp2539
S'NN'
p2540
tp2541
S'I-NP'
p2542
s((S'B-VP'
p2543
g807
tp2544
g809
tp2545
g32
s((tS'RBR'
p2546
tp2547
g1037
s((g862
S'B-VP'
p2548
tp2549
S'JJ'
p2550
tp2551
g32
s((S'B-VP'
p2552
g32
tp2553
S'DT'
p2554
tp2555
S'B-NP'
p2556
s((S'B-VP'
p2557
S'I-VP'
p2558
tp2559
S'VBG'
p2560
tp2561
g1047
s((S'B-VP'
p2562
S'B-NP'
p2563
tp2564
S'VBZ'
p2565
tp2566
S'B-VP'
p2567
s((S'B-NP'
p2568
S'I-NP'
p2569
tp2570
S'VBP'
p2571
tp2572
S'B-VP'
p2573
s((S'B-VP'
p2574
S'B-PP'
p2575
tp2576
S'VBN'
p2577
tp2578
S'B-NP'
p2579
s((S'B-VP'
p2580
g32
tp2581
g805
tp2582
S'B-NP'
p2583
s((g951
g939
tp2584
g941
tp2585
S'B-VP'
p2586
s((g32
tp2587
g129
tp2588
g2476
s((S'B-PP'
p2589
g711
tp2590
g70
tp2591
S'I-NP'
p2592
s((S'B-VP'
p2593
S'B-NP'
p2594
tp2595
S'RBS'
p2596
tp2597
g687
s((S'B-VP'
p2598
g32
tp2599
g48
tp2600
S'B-NP'
p2601
s((g32
tp2602
S'JJ'
p2603
tp2604
S'B-NP'
p2605
s((S'I-NP'
p2606
g538
tp2607
g540
tp2608
S'B-NP'
p2609
s((S'I-NP'
p2610
g2215
tp2611
S'VBZ'
p2612
tp2613
g2216
s((S'I-VP'
p2614
S'B-PP'
p2615
tp2616
S'JJ'
p2617
tp2618
S'B-NP'
p2619
s((S'B-VP'
p2620
g1665
tp2621
S'JJR'
p2622
tp2623
S'I-NP'
p2624
s((S'B-NP'
p2625
g441
tp2626
g443
tp2627
g910
s((g32
g32
tp2628
g63
tp2629
g32
s((S'I-VP'
p2630
g1060
tp2631
g1062
tp2632
S'I-VP'
p2633
s((S'I-NP'
p2634
S'B-NP'
p2635
tp2636
S'RB'
p2637
tp2638
g32
s((g32
g32
tp2639
g551
tp2640
g32
s((S'B-NP'
p2641
g32
tp2642
S'JJR'
p2643
tp2644
g32
s((S'B-VP'
p2645
S'B-VP'
p2646
tp2647
S'TO'
p2648
tp2649
S'B-PP'
p2650
s((tS'TO'
p2651
tp2652
g656
s((S'B-VP'
p2653
S'I-VP'
p2654
tp2655
S'NNS'
p2656
tp2657
g310
s((S'B-VP'
p2658
g32
tp2659
S'IN'
p2660
tp2661
S'B-PP'
p2662
s((S'I-NP'
p2663
g844
tp2664
g846
tp2665
g32
s((S'I-NP'
p2666
S'B-PP'
p2667
tp2668
S'NNP'
p2669
tp2670
g511
s((g32
g32
tp2671
S'VB'
p2672
tp2673
S'B-VP'
p2674
s((S'I-NP'
p2675
g32
tp2676
S'RB'
p2677
tp2678
g32
s((g338
g877
tp2679
g879
tp2680
g24
s((g247
tp2681
g56
tp2682
g32
s((g32
g366
tp2683
S'DT'
p2684
tp2685
S'B-NP'
p2686
s((S'B-PP'
p2687
g1433
tp2688
S'RB'
p2689
tp2690
S'I-NP'
p2691
s((S'B-PP'
p2692
S'B-NP'
p2693
tp2694
S'``'
p2695
tp2696
g649
s((S'I-VP'
p2697
S'B-PP'
p2698
tp2699
S'RB'
p2700
tp2701
g964
s((g32
S'B-PP'
p2702
tp2703
S'VBN'
p2704
tp2705
S'B-NP'
p2706
s((S'B-NP'
p2707
S'I-NP'
p2708
tp2709
g63
tp2710
g32
s((S'B-VP'
p2711
S'B-PP'
p2712
tp2713
S'NN'
p2714
tp2715
S'B-NP'
p2716
s((S'B-VP'
p2717
g32
tp2718
S'NNS'
p2719
tp2720
S'B-NP'
p2721
s((S'B-NP'
p2722
S'B-PP'
p2723
tp2724
S'NNP'
p2725
tp2726
S'B-NP'
p2727
s((g32
g32
tp2728
S'WDT'
p2729
tp2730
S'B-NP'
p2731
s((S'I-VP'
p2732
S'B-VP'
p2733
tp2734
S'JJR'
p2735
tp2736
S'I-VP'
p2737
s((S'I-VP'
p2738
S'I-VP'
p2739
tp2740
S'RBS'
p2741
tp2742
S'B-NP'
p2743
s((S'B-VP'
p2744
S'B-PP'
p2745
tp2746
S'VB'
p2747
tp2748
S'B-NP'
p2749
s((S'B-PP'
p2750
g32
tp2751
S'DT'
p2752
tp2753
S'B-NP'
p2754
s((S'B-PP'
p2755
S'B-NP'
p2756
tp2757
S'RBR'
p2758
tp2759
S'I-NP'
p2760
s((g32
S'B-NP'
p2761
tp2762
S'VBG'
p2763
tp2764
S'I-NP'
p2765
s((S'B-PP'
p2766
S'B-NP'
p2767
tp2768
S'VBZ'
p2769
tp2770
g461
s((g38
g568
tp2771
g570
tp2772
g2589
s((g32
g32
tp2773
g562
tp2774
g32
s((g32
g32
tp2775
S'EX'
p2776
tp2777
g79
s((g32
g32
tp2778
g582
tp2779
S'B-NP'
p2780
s((S'B-NP'
p2781
g591
tp2782
g593
tp2783
S'B-PP'
p2784
s((S'I-NP'
p2785
g489
tp2786
g63
tp2787
g32
s((S'I-NP'
p2788
S'I-NP'
p2789
tp2790
S'RBS'
p2791
tp2792
S'I-NP'
p2793
s((S'B-PP'
p2794
S'B-NP'
p2795
tp2796
S'IN'
p2797
tp2798
S'B-PP'
p2799
s((g32
g2122
tp2800
g56
tp2801
g32
s((S'I-VP'
p2802
S'I-VP'
p2803
tp2804
S'``'
p2805
tp2806
g32
s((S'I-NP'
p2807
S'B-NP'
p2808
tp2809
S'VBZ'
p2810
tp2811
S'B-VP'
p2812
s((g32
S'B-PP'
p2813
tp2814
S'VBG'
p2815
tp2816
S'B-VP'
p2817
s((S'B-NP'
p2818
S'I-NP'
p2819
tp2820
S'RBS'
p2821
tp2822
g242
s((S'I-NP'
p2823
S'B-VP'
p2824
tp2825
S'NNP'
p2826
tp2827
S'B-NP'
p2828
s((g32
S'B-VP'
p2829
tp2830
S'VB'
p2831
tp2832
S'I-VP'
p2833
s((g32
tp2834
S'DT'
p2835
tp2836
g402
s((g32
g1240
tp2837
S'RB'
p2838
tp2839
S'B-NP'
p2840
s((g339
g110
tp2841
g112
tp2842
S'B-PP'
p2843
s((S'I-NP'
p2844
S'B-NP'
p2845
tp2846
g45
tp2847
g32
s((S'I-VP'
p2848
g32
tp2849
S'VB'
p2850
tp2851
S'B-VP'
p2852
s((g32
S'B-PP'
p2853
tp2854
S'VB'
p2855
tp2856
S'B-NP'
p2857
s((S'B-PP'
p2858
S'I-PP'
p2859
tp2860
S'IN'
p2861
tp2862
S'I-PP'
p2863
s((g32
S'B-NP'
p2864
tp2865
S'RBR'
p2866
tp2867
S'I-NP'
p2868
s((S'I-NP'
p2869
g989
tp2870
g991
tp2871
g32
s((g32
g32
tp2872
S'IN'
p2873
tp2874
g371
s((S'B-VP'
p2875
g391
tp2876
g393
tp2877
g395
s((S'B-NP'
p2878
S'I-NP'
p2879
tp2880
S'IN'
p2881
tp2882
g508
s((S'I-NP'
p2883
g32
tp2884
S'VB'
p2885
tp2886
S'B-VP'
p2887
s((S'B-NP'
p2888
g32
tp2889
S'VBZ'
p2890
tp2891
g971
s((S'B-NP'
p2892
S'B-PP'
p2893
tp2894
S'VB'
p2895
tp2896
g2693
s((S'I-PP'
p2897
S'B-NP'
p2898
tp2899
S'JJ'
p2900
tp2901
S'I-NP'
p2902
s((S'B-VP'
p2903
S'B-VP'
p2904
tp2905
S'RBS'
p2906
tp2907
g32
s((S'B-NP'
p2908
g32
tp2909
S'VBD'
p2910
tp2911
S'B-VP'
p2912
s((g32
g760
tp2913
S'TO'
p2914
tp2915
g208
s((g32
S'B-NP'
p2916
tp2917
S'MD'
p2918
tp2919
g87
s((g32
S'B-PP'
p2920
tp2921
S'DT'
p2922
tp2923
S'B-NP'
p2924
s((S'I-NP'
p2925
S'I-NP'
p2926
tp2927
S'VBG'
p2928
tp2929
S'B-VP'
p2930
s((S'B-VP'
p2931
g32
tp2932
S'VBP'
p2933
tp2934
S'B-VP'
p2935
s((g32
S'B-NP'
p2936
tp2937
S'``'
p2938
tp2939
S'I-NP'
p2940
s((g1515
g32
tp2941
g400
tp2942
S'B-NP'
p2943
s((S'I-VP'
p2944
g32
tp2945
S'JJR'
p2946
tp2947
g32
s((S'B-NP'
p2948
S'I-NP'
p2949
tp2950
S'EX'
p2951
tp2952
g848
s((g32
S'B-PP'
p2953
tp2954
S'VBZ'
p2955
tp2956
S'B-VP'
p2957
s((g32
S'B-VP'
p2958
tp2959
S'JJR'
p2960
tp2961
S'B-NP'
p2962
s((S'B-NP'
p2963
g915
tp2964
g917
tp2965
g919
s((S'B-NP'
p2966
g32
tp2967
S'CD'
p2968
tp2969
S'B-NP'
p2970
s((g32
g1003
tp2971
g53
tp2972
g32
s((g32
S'B-VP'
p2973
tp2974
S'VBD'
p2975
tp2976
g203
s((S'B-VP'
p2977
g32
tp2978
S'PDT'
p2979
tp2980
S'B-NP'
p2981
s((S'I-VP'
p2982
S'I-VP'
p2983
tp2984
S'CD'
p2985
tp2986
S'B-NP'
p2987
s((S'B-VP'
p2988
g780
tp2989
S'IN'
p2990
tp2991
S'B-PP'
p2992
s((S'I-NP'
p2993
S'B-PP'
p2994
tp2995
S'JJ'
p2996
tp2997
g338
s((g32
S'B-VP'
p2998
tp2999
S'RBR'
p3000
tp3001
g32
s((S'B-NP'
p3002
g32
tp3003
S'NNS'
p3004
tp3005
S'B-NP'
p3006
s((S'I-VP'
p3007
S'I-VP'
p3008
tp3009
S'NN'
p3010
tp3011
g191
s((g32
g32
tp3012
S'NN'
p3013
tp3014
S'B-NP'
p3015
s((S'B-NP'
p3016
S'B-PP'
p3017
tp3018
S'TO'
p3019
tp3020
S'B-PP'
p3021
s((g625
tp3022
g627
tp3023
S'B-VP'
p3024
s((S'B-NP'
p3025
tp3026
S'CD'
p3027
tp3028
S'I-NP'
p3029
s((S'I-VP'
p3030
g183
tp3031
g185
tp3032
S'B-NP'
p3033
s((S'I-NP'
p3034
S'I-NP'
p3035
tp3036
S'VBN'
p3037
tp3038
g943
s((S'I-VP'
p3039
g998
tp3040
g1000
tp3041
S'B-PP'
p3042
s((S'B-NP'
p3043
tp3044
S'``'
p3045
tp3046
S'I-NP'
p3047
s((S'B-NP'
p3048
S'B-PP'
p3049
tp3050
S'NN'
p3051
tp3052
S'B-NP'
p3053
s((S'I-NP'
p3054
S'B-NP'
p3055
tp3056
S'VBN'
p3057
tp3058
g914
s((S'I-NP'
p3059
g981
tp3060
g983
tp3061
g985
s((S'I-NP'
p3062
S'B-VP'
p3063
tp3064
S'VBG'
p3065
tp3066
g177
s((S'I-VP'
p3067
g32
tp3068
S'RB'
p3069
tp3070
g32
s((S'B-NP'
p3071
S'B-NP'
p3072
tp3073
S'JJR'
p3074
tp3075
S'I-NP'
p3076
s((S'B-PP'
p3077
S'B-NP'
p3078
tp3079
S'VBD'
p3080
tp3081
S'B-VP'
p3082
s((S'I-VP'
p3083
g171
tp3084
g173
tp3085
g38
s((S'B-PP'
p3086
g255
tp3087
g257
tp3088
g259
s((g32
g32
tp3089
g607
tp3090
g32
s((S'B-PP'
p3091
S'I-PP'
p3092
tp3093
S'JJ'
p3094
tp3095
g710
s((S'I-NP'
p3096
g32
tp3097
g956
tp3098
g32
s((S'I-VP'
p3099
S'I-VP'
p3100
tp3101
S'VBZ'
p3102
tp3103
S'B-VP'
p3104
s((S'I-NP'
p3105
g929
tp3106
g931
tp3107
S'I-NP'
p3108
s((S'I-VP'
p3109
S'I-VP'
p3110
tp3111
S'RBR'
p3112
tp3113
g32
s((S'B-VP'
p3114
g32
tp3115
S'JJR'
p3116
tp3117
g32
s((S'B-PP'
p3118
tp3119
S'RB'
p3120
tp3121
S'B-NP'
p3122
s((S'B-NP'
p3123
tp3124
S'VBZ'
p3125
tp3126
S'B-VP'
p3127
s((S'B-NP'
p3128
S'B-VP'
p3129
tp3130
S'VB'
p3131
tp3132
S'I-VP'
p3133
s((g32
S'B-PP'
p3134
tp3135
S'CC'
p3136
tp3137
S'I-PP'
p3138
s((S'B-NP'
p3139
S'B-NP'
p3140
tp3141
S'JJ'
p3142
tp3143
S'I-NP'
p3144
s((S'B-PP'
p3145
g32
tp3146
S'VBD'
p3147
tp3148
S'B-VP'
p3149
s((S'B-NP'
p3150
g764
tp3151
g766
tp3152
S'I-NP'
p3153
s((S'I-VP'
p3154
S'B-PP'
p3155
tp3156
S'``'
p3157
tp3158
g32
s((tS'NNS'
p3159
tp3160
g775
s((S'B-NP'
p3161
g32
tp3162
S'RB'
p3163
tp3164
g32
s((g32
tp3165
S'VBP'
p3166
tp3167
S'B-VP'
p3168
s((S'B-PP'
p3169
S'B-VP'
p3170
tp3171
S'CC'
p3172
tp3173
g135
s((S'I-VP'
p3174
g32
tp3175
S'TO'
p3176
tp3177
S'B-VP'
p3178
s((S'B-VP'
p3179
g32
tp3180
S'JJ'
p3181
tp3182
g32
s((S'B-VP'
p3183
S'B-PP'
p3184
tp3185
S'VBG'
p3186
tp3187
g2153
s((S'B-VP'
p3188
g1607
tp3189
S'JJ'
p3190
tp3191
S'B-NP'
p3192
s((g32
tp3193
S'VBN'
p3194
tp3195
S'B-VP'
p3196
s((S'I-VP'
p3197
g1032
tp3198
g56
tp3199
g32
s((S'I-VP'
p3200
g701
tp3201
g703
tp3202
g705
s((S'B-NP'
p3203
S'B-NP'
p3204
tp3205
S'NNP'
p3206
tp3207
S'I-NP'
p3208
s((S'B-NP'
p3209
S'I-NP'
p3210
tp3211
g48
tp3212
S'I-NP'
p3213
s((g32
S'B-NP'
p3214
tp3215
S'NNP'
p3216
tp3217
S'I-NP'
p3218
s((S'B-NP'
p3219
tp3220
S'PRP'
p3221
tp3222
S'B-NP'
p3223
s((S'B-VP'
p3224
g32
tp3225
g755
tp3226
S'B-NP'
p3227
s((g32
S'B-VP'
p3228
tp3229
S'VBZ'
p3230
tp3231
g753
s((S'B-VP'
p3232
S'B-PP'
p3233
tp3234
S'TO'
p3235
tp3236
S'B-PP'
p3237
s((S'B-NP'
p3238
S'B-PP'
p3239
tp3240
S'VBG'
p3241
tp3242
S'B-VP'
p3243
s((S'B-VP'
p3244
g32
tp3245
S'NN'
p3246
tp3247
S'B-NP'
p3248
s((S'I-NP'
p3249
S'I-NP'
p3250
tp3251
g48
tp3252
g351
s((S'I-NP'
p3253
S'B-PP'
p3254
tp3255
S'``'
p3256
tp3257
g32
s((S'I-NP'
p3258
g136
tp3259
g138
tp3260
g32
s((S'I-VP'
p3261
S'B-VP'
p3262
tp3263
S'VBG'
p3264
tp3265
S'I-VP'
p3266
s((S'I-PP'
p3267
S'B-NP'
p3268
tp3269
S'DT'
p3270
tp3271
S'B-NP'
p3272
s((S'B-VP'
p3273
g32
tp3274
S'``'
p3275
tp3276
g32
s((S'B-NP'
p3277
S'B-VP'
p3278
tp3279
S'DT'
p3280
tp3281
g1010
s((S'I-VP'
p3282
S'B-PP'
p3283
tp3284
S'CC'
p3285
tp3286
g32
s((tg958
tp3287
g32
s((S'I-VP'
p3288
g32
tp3289
S'VBD'
p3290
tp3291
S'B-VP'
p3292
s((S'I-NP'
p3293
g2225
tp3294
S'JJ'
p3295
tp3296
S'I-NP'
p3297
s((S'I-NP'
p3298
g217
tp3299
g219
tp3300
g221
s((S'B-PP'
p3301
S'B-NP'
p3302
tp3303
S'DT'
p3304
tp3305
S'B-NP'
p3306
s((S'B-VP'
p3307
S'B-NP'
p3308
tp3309
S'VBP'
p3310
tp3311
S'B-VP'
p3312
s((g748
g1676
tp3313
S'TO'
p3314
tp3315
S'I-VP'
p3316
s((S'I-VP'
p3317
S'B-NP'
p3318
tp3319
S'JJR'
p3320
tp3321
S'I-NP'
p3322
s((g32
g739
tp3323
g741
tp3324
S'I-VP'
p3325
s((S'I-NP'
p3326
S'B-NP'
p3327
tp3328
S'TO'
p3329
tp3330
S'I-NP'
p3331
s((S'I-VP'
p3332
S'I-VP'
p3333
tp3334
S'VB'
p3335
tp3336
g28
s((S'B-NP'
p3337
S'I-NP'
p3338
tp3339
S'JJ'
p3340
tp3341
g896
s((S'I-VP'
p3342
S'B-NP'
p3343
tp3344
S'WRB'
p3345
tp3346
g32
s((S'I-VP'
p3347
S'I-VP'
p3348
tp3349
S'JJ'
p3350
tp3351
g110
s((S'B-VP'
p3352
g529
tp3353
g531
tp3354
g32
s((S'B-VP'
p3355
S'B-PP'
p3356
tp3357
S'JJ'
p3358
tp3359
S'B-NP'
p3360
s((S'I-NP'
p3361
g32
tp3362
S'JJ'
p3363
tp3364
S'B-NP'
p3365
s((S'B-NP'
p3366
tp3367
S'RBR'
p3368
tp3369
S'I-NP'
p3370
s((g691
g34
tp3371
g23
tp3372
S'I-VP'
p3373
s((g2538
S'B-NP'
p3374
tp3375
S'VBN'
p3376
tp3377
S'B-VP'
p3378
s((S'I-VP'
p3379
S'B-NP'
p3380
tp3381
g56
tp3382
g32
s((g32
S'B-NP'
p3383
tp3384
S'VBN'
p3385
tp3386
S'I-NP'
p3387
s((S'I-NP'
p3388
S'I-NP'
p3389
tp3390
S'MD'
p3391
tp3392
g904
s((S'I-NP'
p3393
g32
tp3394
S'VBZ'
p3395
tp3396
g1347
s((S'B-PP'
p3397
g32
tp3398
S'RB'
p3399
tp3400
g32
s((S'B-VP'
p3401
S'B-PP'
p3402
tp3403
S'NNP'
p3404
tp3405
S'B-NP'
p3406
s((S'B-PP'
p3407
S'B-NP'
p3408
tp3409
g53
tp3410
g32
s((S'B-PP'
p3411
g32
tp3412
g48
tp3413
g32
s((S'B-PP'
p3414
S'B-VP'
p3415
tp3416
S'JJR'
p3417
tp3418
S'B-NP'
p3419
s((S'B-NP'
p3420
tp3421
S'JJR'
p3422
tp3423
S'I-NP'
p3424
s((S'B-NP'
p3425
S'B-VP'
p3426
tp3427
S"''"
p3428
tp3429
g32
s((S'B-VP'
p3430
tp3431
S'RB'
p3432
tp3433
g32
s((S'B-NP'
p3434
tp3435
S'TO'
p3436
tp3437
S'B-VP'
p3438
s((S'B-NP'
p3439
tp3440
S'JJ'
p3441
tp3442
S'I-NP'
p3443
s((S'I-VP'
p3444
g650
tp3445
g652
tp3446
g32
s((g32
S'B-VP'
p3447
tp3448
S'RB'
p3449
tp3450
S'I-VP'
p3451
s((g32
g32
tp3452
g812
tp3453
g32
s((S'B-PP'
p3454
S'B-NP'
p3455
tp3456
S'CD'
p3457
tp3458
g636
s((S'I-NP'
p3459
g499
tp3460
g501
tp3461
g503
s((tg897
tp3462
g899
s((S'B-NP'
p3463
S'B-VP'
p3464
tp3465
S'VBN'
p3466
tp3467
S'I-VP'
p3468
s((S'B-VP'
p3469
g32
tp3470
S'MD'
p3471
tp3472
S'B-VP'
p3473
s((g904
S'I-VP'
p3474
tp3475
S'TO'
p3476
tp3477
S'I-VP'
p3478
s((S'B-NP'
p3479
g3179
tp3480
S'RB'
p3481
tp3482
S'I-VP'
p3483
s((g32
g32
tp3484
S'VBD'
p3485
tp3486
g55
s((S'B-NP'
p3487
S'B-NP'
p3488
tp3489
S'RBS'
p3490
tp3491
g32
s((S'B-PP'
p3492
g32
tp3493
S'NNS'
p3494
tp3495
S'B-NP'
p3496
s((S'I-NP'
p3497
g32
tp3498
g578
tp3499
g580
s((S'I-NP'
p3500
S'B-VP'
p3501
tp3502
S'PDT'
p3503
tp3504
g733
s((S'B-VP'
p3505
S'B-NP'
p3506
tp3507
S'VBN'
p3508
tp3509
S'I-NP'
p3510
s((S'I-NP'
p3511
g32
tp3512
S'NNS'
p3513
tp3514
S'B-NP'
p3515
s((g32
g114
tp3516
g116
tp3517
g32
s((S'B-VP'
p3518
g427
tp3519
g429
tp3520
g431
s((S'B-PP'
p3521
g32
tp3522
g782
tp3523
g32
s((S'B-VP'
p3524
S'B-NP'
p3525
tp3526
S'VB'
p3527
tp3528
S'B-VP'
p3529
s((S'B-PP'
p3530
S'B-NP'
p3531
tp3532
S'PRP'
p3533
tp3534
g862
s((S'B-NP'
p3535
S'B-NP'
p3536
tp3537
S'DT'
p3538
tp3539
S'I-NP'
p3540
s((S'B-VP'
p3541
g32
tp3542
S'RB'
p3543
tp3544
g32
s((S'B-PP'
p3545
g32
tp3546
S'VBN'
p3547
tp3548
S'B-PP'
p3549
s((g32
tp3550
S'VB'
p3551
tp3552
S'B-VP'
p3553
s((S'B-VP'
p3554
g553
tp3555
g555
tp3556
S'B-NP'
p3557
s((g32
tp3558
S'TO'
p3559
tp3560
S'B-PP'
p3561
s((S'B-PP'
p3562
S'B-NP'
p3563
tp3564
S'PRP$'
p3565
tp3566
S'I-NP'
p3567
s((S'I-NP'
p3568
S'I-NP'
p3569
tp3570
g56
tp3571
g32
s((S'B-NP'
p3572
g89
tp3573
g681
tp3574
g32
s((g32
g457
tp3575
g459
tp3576
S'B-VP'
p3577
s((S'I-NP'
p3578
g32
tp3579
S'VBN'
p3580
tp3581
g760
s((S'I-VP'
p3582
S'B-NP'
p3583
tp3584
S'NNP'
p3585
tp3586
S'I-NP'
p3587
s((S'I-VP'
p3588
S'I-VP'
p3589
tp3590
S'WDT'
p3591
tp3592
S'B-NP'
p3593
s((S'I-NP'
p3594
S'B-VP'
p3595
tp3596
S'IN'
p3597
tp3598
g595
s((S'B-VP'
p3599
g445
tp3600
g447
tp3601
g32
s((S'I-NP'
p3602
g714
tp3603
g716
tp3604
S'I-NP'
p3605
s((S'I-PP'
p3606
S'B-NP'
p3607
tp3608
S'IN'
p3609
tp3610
S'B-PP'
p3611
s((S'I-VP'
p3612
S'B-NP'
p3613
tp3614
S'RBR'
p3615
tp3616
g32
s((S'I-NP'
p3617
S'B-PP'
p3618
tp3619
S'RB'
p3620
tp3621
S'B-NP'
p3622
s((g32
S'B-VP'
p3623
tp3624
g56
tp3625
g32
s((S'B-VP'
p3626
tp3627
S'JJR'
p3628
tp3629
g32
s((S'B-VP'
p3630
g32
tp3631
S'VBZ'
p3632
tp3633
S'B-VP'
p3634
s((g2702
g32
tp3635
S'TO'
p3636
tp3637
S'B-VP'
p3638
s((S'I-NP'
p3639
S'B-VP'
p3640
tp3641
S'NNS'
p3642
tp3643
S'B-NP'
p3644
s((S'I-NP'
p3645
S'I-NP'
p3646
tp3647
g57
tp3648
g32
s((g32
S'B-VP'
p3649
tp3650
S'NN'
p3651
tp3652
S'B-NP'
p3653
s((g32
g32
tp3654
S'TO'
p3655
tp3656
g366
s((S'B-NP'
p3657
S'B-VP'
p3658
tp3659
S'VBZ'
p3660
tp3661
S'B-VP'
p3662
s((S'B-NP'
p3663
g609
tp3664
g611
tp3665
g613
s((S'B-VP'
p3666
S'B-PP'
p3667
tp3668
S'DT'
p3669
tp3670
S'B-NP'
p3671
s((S'I-NP'
p3672
g881
tp3673
g883
tp3674
S'B-NP'
p3675
s((S'B-VP'
p3676
S'B-NP'
p3677
tp3678
S'JJ'
p3679
tp3680
S'I-NP'
p3681
s((g32
tp3682
S'RB'
p3683
tp3684
g32
s((S'B-VP'
p3685
g32
tp3686
S'CD'
p3687
tp3688
g584
s((g1250
g1254
tp3689
S'NN'
p3690
tp3691
g356
s((g32
tp3692
S'VBG'
p3693
tp3694
S'B-VP'
p3695
s((S'B-NP'
p3696
g32
tp3697
S'VBG'
p3698
tp3699
S'B-VP'
p3700
s((S'I-NP'
p3701
g768
tp3702
g770
tp3703
S'B-NP'
p3704
s((S'I-NP'
p3705
S'B-PP'
p3706
tp3707
S'JJR'
p3708
tp3709
S'B-NP'
p3710
s((S'I-NP'
p3711
g32
tp3712
S'IN'
p3713
tp3714
S'B-PP'
p3715
s((g32
S'B-NP'
p3716
tp3717
S'CC'
p3718
tp3719
g32
s((S'B-VP'
p3720
tp3721
S'IN'
p3722
tp3723
S'B-PP'
p3724
s((S'B-NP'
p3725
S'B-VP'
p3726
tp3727
S'NN'
p3728
tp3729
S'B-NP'
p3730
s((S'B-NP'
p3731
S'B-VP'
p3732
tp3733
S'RBS'
p3734
tp3735
g32
s((S'B-NP'
p3736
g517
tp3737
g519
tp3738
g521
s((S'I-VP'
p3739
S'B-NP'
p3740
tp3741
S'CC'
p3742
tp3743
S'I-NP'
p3744
s((S'I-NP'
p3745
g1011
tp3746
g1013
tp3747
g32
s((S'B-VP'
p3748
S'B-NP'
p3749
tp3750
S'TO'
p3751
tp3752
S'B-PP'
p3753
s((S'B-VP'
p3754
S'I-VP'
p3755
tp3756
S'CC'
p3757
tp3758
g484
s((g2924
g260
tp3759
g262
tp3760
g67
s((g123
g127
tp3761
S'IN'
p3762
tp3763
S'B-PP'
p3764
s((S'B-VP'
p3765
g452
tp3766
g454
tp3767
g32
s((g32
tp3768
S'JJS'
p3769
tp3770
S'B-NP'
p3771
s((S'B-NP'
p3772
tp3773
S'VBP'
p3774
tp3775
S'B-VP'
p3776
s((S'B-VP'
p3777
S'I-VP'
p3778
tp3779
S'VBD'
p3780
tp3781
S'I-VP'
p3782
s((S'I-NP'
p3783
g934
tp3784
g936
tp3785
g32
s((S'B-NP'
p3786
tp3787
S'CC'
p3788
tp3789
S'I-NP'
p3790
s((S'B-PP'
p3791
S'B-NP'
p3792
tp3793
S'MD'
p3794
tp3795
S'B-VP'
p3796
s((S'B-PP'
p3797
tp3798
S'TO'
p3799
tp3800
g1002
s((S'B-VP'
p3801
S'B-NP'
p3802
tp3803
S'VBG'
p3804
tp3805
S'I-NP'
p3806
s((S'I-NP'
p3807
g32
tp3808
S'MD'
p3809
tp3810
g318
s((tS'JJ'
p3811
tp3812
g728
s((g32
g32
tp3813
S'RBS'
p3814
tp3815
g288
s((S'B-VP'
p3816
S'B-NP'
p3817
tp3818
S'RBR'
p3819
tp3820
g1059
s((S'I-NP'
p3821
S'I-NP'
p3822
tp3823
S'NNPS'
p3824
tp3825
S'I-NP'
p3826
s((S'I-VP'
p3827
S'B-PP'
p3828
tp3829
S'VBZ'
p3830
tp3831
S'B-VP'
p3832
s((S'I-VP'
p3833
S'B-NP'
p3834
tp3835
S'CD'
p3836
tp3837
S'I-NP'
p3838
s((S'B-NP'
p3839
g32
tp3840
S'VB'
p3841
tp3842
g204
s((S'B-NP'
p3843
S'B-NP'
p3844
tp3845
S'VBG'
p3846
tp3847
S'I-NP'
p3848
s((S'I-VP'
p3849
S'I-VP'
p3850
tp3851
S'TO'
p3852
tp3853
g326
s((g32
S'B-PP'
p3854
tp3855
S'NN'
p3856
tp3857
g357
s((g32
g32
tp3858
S'MD'
p3859
tp3860
S'B-VP'
p3861
s((S'B-NP'
p3862
g367
tp3863
g369
tp3864
g85
s((S'B-NP'
p3865
g3411
tp3866
S'DT'
p3867
tp3868
g44
s((g32
S'B-PP'
p3869
tp3870
S'``'
p3871
tp3872
g32
s((S'B-VP'
p3873
S'I-VP'
p3874
tp3875
S'NNP'
p3876
tp3877
S'B-NP'
p3878
s((S'I-VP'
p3879
g836
tp3880
g838
tp3881
g32
s((S'I-PP'
p3882
S'B-VP'
p3883
tp3884
S'RB'
p3885
tp3886
g32
s((S'B-NP'
p3887
S'B-NP'
p3888
tp3889
S'TO'
p3890
tp3891
S'I-NP'
p3892
s((S'B-VP'
p3893
S'B-VP'
p3894
tp3895
S'RB'
p3896
tp3897
S'I-VP'
p3898
s((S'B-NP'
p3899
g3744
tp3900
S'DT'
p3901
tp3902
S'B-NP'
p3903
s((S'B-PP'
p3904
S'B-VP'
p3905
tp3906
S'JJ'
p3907
tp3908
S'B-NP'
p3909
s((S'B-NP'
p3910
g226
tp3911
g228
tp3912
S'B-VP'
p3913
s((S'B-VP'
p3914
tp3915
S'JJ'
p3916
tp3917
g32
s((S'B-PP'
p3918
S'B-PP'
p3919
tp3920
S'VBG'
p3921
tp3922
S'B-VP'
p3923
s((S'I-PP'
p3924
g32
tp3925
S'VBP'
p3926
tp3927
g32
s((S'B-NP'
p3928
tp3929
S'RB'
p3930
tp3931
g32
s((S'B-VP'
p3932
S'I-VP'
p3933
tp3934
S'EX'
p3935
tp3936
g32
s((S'I-VP'
p3937
g268
tp3938
S'JJ'
p3939
tp3940
g32
s((S'B-VP'
p3941
S'B-PP'
p3942
tp3943
S'CC'
p3944
tp3945
S'I-PP'
p3946
s((S'B-PP'
p3947
S'B-VP'
p3948
tp3949
S'VBD'
p3950
tp3951
S'I-VP'
p3952
s((S'I-PP'
p3953
g32
tp3954
S'JJ'
p3955
tp3956
g32
s((g32
g32
tp3957
g404
tp3958
S'B-VP'
p3959
s((S'B-VP'
p3960
S'B-NP'
p3961
tp3962
S'DT'
p3963
tp3964
S'I-NP'
p3965
s((S'I-VP'
p3966
S'I-VP'
p3967
tp3968
S'VBP'
p3969
tp3970
S'I-VP'
p3971
s((g32
g330
tp3972
g332
tp3973
g26
s((S'I-NP'
p3974
g32
tp3975
S'VBP'
p3976
tp3977
g3188
s((S'I-NP'
p3978
g776
tp3979
g778
tp3980
g32
s((g2168
S'B-VP'
p3981
tp3982
S'IN'
p3983
tp3984
S'B-PP'
p3985
s((S'I-NP'
p3986
g744
tp3987
g746
tp3988
S'B-NP'
p3989
s((g32
tp3990
g1030
tp3991
S'B-PP'
p3992
s((S'B-VP'
p3993
g264
tp3994
g266
tp3995
S'I-VP'
p3996
s((S'B-NP'
p3997
S'B-NP'
p3998
tp3999
S'VBZ'
p4000
tp4001
S'B-VP'
p4002
s((S'B-PP'
p4003
S'B-NP'
p4004
tp4005
S'VBG'
p4006
tp4007
g198
s((g664
tp4008
g666
tp4009
S'I-NP'
p4010
s((g914
S'I-NP'
p4011
tp4012
S'TO'
p4013
tp4014
S'B-VP'
p4015
s((S'B-NP'
p4016
S'B-VP'
p4017
tp4018
S'``'
p4019
tp4020
g32
s((S'I-VP'
p4021
S'B-VP'
p4022
tp4023
S'``'
p4024
tp4025
g32
ssb.